target datalayout = "e-m:e-p270:32:32-p271:32:32-p272:64:64-i64:64-i128:128-f80:128-n8:16:32:64-S128"
target triple = "x86_64-unknown-linux-gnu"

@progress_printed = dso_local global i64 0, align 8
@progress_full = dso_local global i64 0, align 8
@stdout = external global ptr, align 8
@.str.6 = private unnamed_addr constant [3 x i8] c"%c\00", align 1
@.str.7 = private unnamed_addr constant [47 x i8] c"\0A*** MEMORY ADDRESSING ERROR: %p contains %lu\0A\00", align 1

; Function Attrs: nounwind uwtable
define dso_local void @memtest_progress_step(i64 noundef %curr, i64 noundef %size, i8 noundef signext %c) #0 {
entry:
  %curr.addr = alloca i64, align 8
  %size.addr = alloca i64, align 8
  %c.addr = alloca i8, align 1
  %chars = alloca i64, align 8
  %j = alloca i64, align 8
  store i64 %curr, ptr %curr.addr, align 8
  store i64 %size, ptr %size.addr, align 8
  store i8 %c, ptr %c.addr, align 1
  %0 = load i64, ptr %curr.addr, align 8
  %1 = load i64, ptr @progress_full, align 8
  %mul = mul i64 %0, %1
  %2 = load i64, ptr %size.addr, align 8
  %div = udiv i64 %mul, %2
  store i64 %div, ptr %chars, align 8
  store i64 0, ptr %j, align 8
  br label %for.cond

for.cond:                                         ; preds = %for.inc, %entry
  %3 = load i64, ptr %j, align 8
  %4 = load i64, ptr %chars, align 8
  %5 = load i64, ptr @progress_printed, align 8
  %sub = sub i64 %4, %5
  %cmp = icmp ult i64 %3, %sub
  br i1 %cmp, label %for.body, label %for.end

for.body:                                         ; preds = %for.cond
  %6 = load i8, ptr %c.addr, align 1
  %conv = sext i8 %6 to i32
  %call = call i32 (ptr, ...) @printf(ptr noundef @.str.6, i32 noundef %conv)
  br label %for.inc

for.inc:                                          ; preds = %for.body
  %7 = load i64, ptr %j, align 8
  %inc = add i64 %7, 1
  store i64 %inc, ptr %j, align 8
  br label %for.cond, !llvm.loop !7

for.end:                                          ; preds = %for.cond
  %8 = load i64, ptr %chars, align 8
  store i64 %8, ptr @progress_printed, align 8
  %9 = load ptr, ptr @stdout, align 8
  %call1 = call i32 @fflush(ptr noundef %9)
  ret void
}

; Function Attrs: nounwind uwtable
define dso_local i32 @memtest_addressing(ptr noundef %l, i64 noundef %bytes, i32 noundef %interactive) #0 {
entry:
  %retval = alloca i32, align 4
  %l.addr = alloca ptr, align 8
  %bytes.addr = alloca i64, align 8
  %interactive.addr = alloca i32, align 4
  %words = alloca i64, align 8
  %j = alloca i64, align 8
  %p = alloca ptr, align 8
  store ptr %l, ptr %l.addr, align 8
  store i64 %bytes, ptr %bytes.addr, align 8
  store i32 %interactive, ptr %interactive.addr, align 4
  %0 = load i64, ptr %bytes.addr, align 8
  %div = udiv i64 %0, 8
  store i64 %div, ptr %words, align 8
  %1 = load ptr, ptr %l.addr, align 8
  store ptr %1, ptr %p, align 8
  store i64 0, ptr %j, align 8
  br label %for.cond

for.cond:                                         ; preds = %for.inc, %entry
  %2 = load i64, ptr %j, align 8
  %3 = load i64, ptr %words, align 8
  %cmp = icmp ult i64 %2, %3
  br i1 %cmp, label %for.body, label %for.end

for.body:                                         ; preds = %for.cond
  %4 = load ptr, ptr %p, align 8
  %5 = ptrtoint ptr %4 to i64
  %6 = load ptr, ptr %p, align 8
  store i64 %5, ptr %6, align 8
  %7 = load ptr, ptr %p, align 8
  %incdec.ptr = getelementptr inbounds i64, ptr %7, i32 1
  store ptr %incdec.ptr, ptr %p, align 8
  %8 = load i64, ptr %j, align 8
  %and = and i64 %8, 65535
  %cmp1 = icmp eq i64 %and, 0
  br i1 %cmp1, label %land.lhs.true, label %if.end

land.lhs.true:                                    ; preds = %for.body
  %9 = load i32, ptr %interactive.addr, align 4
  %tobool = icmp ne i32 %9, 0
  br i1 %tobool, label %if.then, label %if.end

if.then:                                          ; preds = %land.lhs.true
  %10 = load i64, ptr %j, align 8
  %11 = load i64, ptr %words, align 8
  %mul = mul i64 %11, 2
  call void @memtest_progress_step(i64 noundef %10, i64 noundef %mul, i8 noundef signext 65)
  br label %if.end

if.end:                                           ; preds = %if.then, %land.lhs.true, %for.body
  br label %for.inc

for.inc:                                          ; preds = %if.end
  %12 = load i64, ptr %j, align 8
  %inc = add i64 %12, 1
  store i64 %inc, ptr %j, align 8
  br label %for.cond, !llvm.loop !8

for.end:                                          ; preds = %for.cond
  %13 = load ptr, ptr %l.addr, align 8
  store ptr %13, ptr %p, align 8
  store i64 0, ptr %j, align 8
  br label %for.cond2

for.cond2:                                        ; preds = %for.inc19, %for.end
  %14 = load i64, ptr %j, align 8
  %15 = load i64, ptr %words, align 8
  %cmp3 = icmp ult i64 %14, %15
  br i1 %cmp3, label %for.body4, label %for.end21

for.body4:                                        ; preds = %for.cond2
  %16 = load ptr, ptr %p, align 8
  %17 = load i64, ptr %16, align 8
  %18 = load ptr, ptr %p, align 8
  %19 = ptrtoint ptr %18 to i64
  %cmp5 = icmp ne i64 %17, %19
  br i1 %cmp5, label %if.then6, label %if.end10

if.then6:                                         ; preds = %for.body4
  %20 = load i32, ptr %interactive.addr, align 4
  %tobool7 = icmp ne i32 %20, 0
  br i1 %tobool7, label %if.then8, label %if.end9

if.then8:                                         ; preds = %if.then6
  %21 = load ptr, ptr %p, align 8
  %22 = load ptr, ptr %p, align 8
  %23 = load i64, ptr %22, align 8
  %call = call i32 (ptr, ...) @printf(ptr noundef @.str.7, ptr noundef %21, i64 noundef %23)
  call void @exit(i32 noundef 1) #7
  unreachable

if.end9:                                          ; preds = %if.then6
  store i32 1, ptr %retval, align 4
  br label %return

if.end10:                                         ; preds = %for.body4
  %24 = load ptr, ptr %p, align 8
  %incdec.ptr11 = getelementptr inbounds i64, ptr %24, i32 1
  store ptr %incdec.ptr11, ptr %p, align 8
  %25 = load i64, ptr %j, align 8
  %and12 = and i64 %25, 65535
  %cmp13 = icmp eq i64 %and12, 0
  br i1 %cmp13, label %land.lhs.true14, label %if.end18

land.lhs.true14:                                  ; preds = %if.end10
  %26 = load i32, ptr %interactive.addr, align 4
  %tobool15 = icmp ne i32 %26, 0
  br i1 %tobool15, label %if.then16, label %if.end18

if.then16:                                        ; preds = %land.lhs.true14
  %27 = load i64, ptr %j, align 8
  %28 = load i64, ptr %words, align 8
  %add = add i64 %27, %28
  %29 = load i64, ptr %words, align 8
  %mul17 = mul i64 %29, 2
  call void @memtest_progress_step(i64 noundef %add, i64 noundef %mul17, i8 noundef signext 65)
  br label %if.end18

if.end18:                                         ; preds = %if.then16, %land.lhs.true14, %if.end10
  br label %for.inc19

for.inc19:                                        ; preds = %if.end18
  %30 = load i64, ptr %j, align 8
  %inc20 = add i64 %30, 1
  store i64 %inc20, ptr %j, align 8
  br label %for.cond2, !llvm.loop !9

for.end21:                                        ; preds = %for.cond2
  store i32 0, ptr %retval, align 4
  br label %return

return:                                           ; preds = %for.end21, %if.end9
  %31 = load i32, ptr %retval, align 4
  ret i32 %31
}