; Function Attrs: nounwind uwtable
define dso_local noundef i32 @memtest_addressing(ptr noundef %l, i64 noundef %bytes, i32 noundef %interactive) local_unnamed_addr #2 {
entry:
  %div23 = lshr i64 %bytes, 3
  %cmp37.not = icmp ult i64 %bytes, 8
  br i1 %cmp37.not, label %return, label %for.body.lr.ph

for.body.lr.ph:                                   ; preds = %entry
  %tobool.not = icmp eq i32 %interactive, 0
  %mul = shl nuw nsw i64 %div23, 1
  br i1 %tobool.not, label %for.body.us, label %for.body

for.body.us:                                      ; preds = %for.body.lr.ph, %for.body.us
  %p.039.us = phi ptr [ %incdec.ptr.us, %for.body.us ], [ %l, %for.body.lr.ph ]
  %j.038.us = phi i64 [ %inc.us, %for.body.us ], [ 0, %for.body.lr.ph ]
  %0 = ptrtoint ptr %p.039.us to i64
  store i64 %0, ptr %p.039.us, align 8
  %incdec.ptr.us = getelementptr inbounds i8, ptr %p.039.us, i64 8
  %inc.us = add nuw nsw i64 %j.038.us, 1
  %exitcond52.not = icmp eq i64 %inc.us, %div23
  br i1 %exitcond52.not, label %for.cond2.preheader, label %for.body.us, !llvm.loop !8

for.cond2.preheader:                              ; preds = %for.inc, %for.body.us
  br i1 %cmp37.not, label %return, label %for.body4.lr.ph

for.body4.lr.ph:                                  ; preds = %for.cond2.preheader
  %tobool15.not = icmp eq i32 %interactive, 0
  %mul17 = shl nuw nsw i64 %div23, 1
  br i1 %tobool15.not, label %for.body4.us, label %for.body4

for.body4.us:                                     ; preds = %for.body4.lr.ph, %if.end10.us
  %p.142.us = phi ptr [ %incdec.ptr11.us, %if.end10.us ], [ %l, %for.body4.lr.ph ]
  %j.141.us = phi i64 [ %inc20.us, %if.end10.us ], [ 0, %for.body4.lr.ph ]
  %1 = load i64, ptr %p.142.us, align 8
  %2 = ptrtoint ptr %p.142.us to i64
  %cmp5.not.us = icmp eq i64 %1, %2
  br i1 %cmp5.not.us, label %if.end10.us, label %if.then6

if.end10.us:                                      ; preds = %for.body4.us
  %incdec.ptr11.us = getelementptr inbounds i8, ptr %p.142.us, i64 8
  %inc20.us = add nuw nsw i64 %j.141.us, 1
  %exitcond54.not = icmp eq i64 %inc20.us, %div23
  br i1 %exitcond54.not, label %return, label %for.body4.us, !llvm.loop !9

for.body:                                         ; preds = %for.body.lr.ph, %for.inc
  %p.039 = phi ptr [ %incdec.ptr, %for.inc ], [ %l, %for.body.lr.ph ]
  %j.038 = phi i64 [ %inc, %for.inc ], [ 0, %for.body.lr.ph ]
  %3 = ptrtoint ptr %p.039 to i64
  store i64 %3, ptr %p.039, align 8
  %incdec.ptr = getelementptr inbounds i8, ptr %p.039, i64 8
  %and = and i64 %j.038, 65535
  %cmp1 = icmp eq i64 %and, 0
  br i1 %cmp1, label %if.then, label %for.inc

if.then:                                          ; preds = %for.body
  %4 = load i64, ptr @progress_full, align 8
  %mul.i = mul i64 %4, %j.038
  %div.i = udiv i64 %mul.i, %mul
  %5 = load i64, ptr @progress_printed, align 8
  %cmp4.not.i = icmp eq i64 %div.i, %5
  br i1 %cmp4.not.i, label %memtest_progress_step.exit, label %for.body.i

for.body.i:                                       ; preds = %if.then, %for.body.i
  %j.05.i = phi i64 [ %inc.i, %for.body.i ], [ 0, %if.then ]
  %putchar.i = tail call i32 @putchar(i32 65)
  %inc.i = add nuw i64 %j.05.i, 1
  %6 = load i64, ptr @progress_printed, align 8
  %sub.i = sub i64 %div.i, %6
  %cmp.i = icmp ult i64 %inc.i, %sub.i
  br i1 %cmp.i, label %for.body.i, label %memtest_progress_step.exit, !llvm.loop !7

memtest_progress_step.exit:                       ; preds = %for.body.i, %if.then
  store i64 %div.i, ptr @progress_printed, align 8
  %7 = load ptr, ptr @stdout, align 8
  %call1.i = tail call i32 @fflush(ptr noundef %7)
  br label %for.inc

for.inc:                                          ; preds = %for.body, %memtest_progress_step.exit
  %inc = add nuw nsw i64 %j.038, 1
  %exitcond.not = icmp eq i64 %inc, %div23
  br i1 %exitcond.not, label %for.cond2.preheader, label %for.body, !llvm.loop !8

for.body4:                                        ; preds = %for.body4.lr.ph, %for.inc19
  %p.142 = phi ptr [ %incdec.ptr11, %for.inc19 ], [ %l, %for.body4.lr.ph ]
  %j.141 = phi i64 [ %inc20, %for.inc19 ], [ 0, %for.body4.lr.ph ]
  %8 = load i64, ptr %p.142, align 8
  %9 = ptrtoint ptr %p.142 to i64
  %cmp5.not = icmp eq i64 %8, %9
  br i1 %cmp5.not, label %if.end10, label %if.then6

if.then6:                                         ; preds = %for.body4, %for.body4.us
  %.us-phi = phi i64 [ %1, %for.body4.us ], [ %8, %for.body4 ]
  %.us-phi43 = phi ptr [ %p.142.us, %for.body4.us ], [ %p.142, %for.body4 ]
  br i1 %tobool15.not, label %return, label %if.then8

if.then8:                                         ; preds = %if.then6
  %call = tail call i32 (ptr, ...) @printf(ptr noundef nonnull dereferenceable(1) @.str.7, ptr noundef nonnull %.us-phi43, i64 noundef %.us-phi)
  tail call void @exit(i32 noundef 1) #13
  unreachable

if.end10:                                         ; preds = %for.body4
  %incdec.ptr11 = getelementptr inbounds i8, ptr %p.142, i64 8
  %and12 = and i64 %j.141, 65535
  %cmp13 = icmp eq i64 %and12, 0
  br i1 %cmp13, label %if.then16, label %for.inc19

if.then16:                                        ; preds = %if.end10
  %add = add nuw nsw i64 %j.141, %div23
  %10 = load i64, ptr @progress_full, align 8
  %mul.i24 = mul i64 %10, %add
  %div.i25 = udiv i64 %mul.i24, %mul17
  %11 = load i64, ptr @progress_printed, align 8
  %cmp4.not.i26 = icmp eq i64 %div.i25, %11
  br i1 %cmp4.not.i26, label %memtest_progress_step.exit35, label %for.body.i28

for.body.i28:                                     ; preds = %if.then16, %for.body.i28
  %j.05.i29 = phi i64 [ %inc.i31, %for.body.i28 ], [ 0, %if.then16 ]
  %putchar.i30 = tail call i32 @putchar(i32 65)
  %inc.i31 = add nuw i64 %j.05.i29, 1
  %12 = load i64, ptr @progress_printed, align 8
  %sub.i32 = sub i64 %div.i25, %12
  %cmp.i33 = icmp ult i64 %inc.i31, %sub.i32
  br i1 %cmp.i33, label %for.body.i28, label %memtest_progress_step.exit35, !llvm.loop !7

memtest_progress_step.exit35:                     ; preds = %for.body.i28, %if.then16
  store i64 %div.i25, ptr @progress_printed, align 8
  %13 = load ptr, ptr @stdout, align 8
  %call1.i34 = tail call i32 @fflush(ptr noundef %13)
  br label %for.inc19

for.inc19:                                        ; preds = %if.end10, %memtest_progress_step.exit35
  %inc20 = add nuw nsw i64 %j.141, 1
  %exitcond53.not = icmp eq i64 %inc20, %div23
  br i1 %exitcond53.not, label %return, label %for.body4, !llvm.loop !9

return:                                           ; preds = %for.inc19, %if.end10.us, %entry, %for.cond2.preheader, %if.then6
  %retval.0 = phi i32 [ 1, %if.then6 ], [ 0, %for.cond2.preheader ], [ 0, %entry ], [ 0, %if.end10.us ], [ 0, %for.inc19 ]
  ret i32 %retval.0
}